; Function Attrs: nounwind uwtable
define internal fastcc range(i32 -530, 1) i32 @session_predicate_push_response_headers_send(ptr noundef %0, ptr noundef nonnull readonly captures(none) %1) unnamed_addr #1 {
  %3 = tail call fastcc i32 @session_is_closing(ptr noundef %0)
  %.not.i = icmp eq i32 %3, 0
  br i1 %.not.i, label %4, label %session_predicate_for_stream_send.exit.thread

4:                                                ; preds = %2
  %5 = getelementptr inbounds nuw i8, ptr %1, i64 217
  %6 = load i8, ptr %5, align 1, !tbaa !160
  %7 = and i8 %6, 2
  %.not4.i = icmp eq i8 %7, 0
  br i1 %.not4.i, label %session_predicate_for_stream_send.exit, label %session_predicate_for_stream_send.exit.thread

session_predicate_for_stream_send.exit:           ; preds = %4
  %8 = getelementptr inbounds nuw i8, ptr %0, i64 2844
  %9 = load i8, ptr %8, align 4, !tbaa !40
  %.not8 = icmp eq i8 %9, 0
  br i1 %.not8, label %session_predicate_for_stream_send.exit.thread, label %10

10:                                               ; preds = %session_predicate_for_stream_send.exit
  %11 = getelementptr inbounds nuw i8, ptr %1, i64 204
  %12 = load i32, ptr %11, align 4, !tbaa !42
  %.not9 = icmp eq i32 %12, 4
  br i1 %.not9, label %13, label %session_predicate_for_stream_send.exit.thread

13:                                               ; preds = %10
  %14 = getelementptr inbounds nuw i8, ptr %0, i64 2845
  %15 = load i8, ptr %14, align 1, !tbaa !4
  %16 = and i8 %15, 8
  %.not10 = icmp eq i8 %16, 0
  %. = select i1 %.not10, i32 0, i32 -516
  br label %session_predicate_for_stream_send.exit.thread

session_predicate_for_stream_send.exit.thread:    ; preds = %4, %2, %13, %10, %session_predicate_for_stream_send.exit
  %.0 = phi i32 [ -505, %session_predicate_for_stream_send.exit ], [ -505, %10 ], [ %., %13 ], [ -512, %4 ], [ -530, %2 ]
  ret i32 %.0
}